; Function Attrs: mustprogress nofree norecurse nosync nounwind willreturn memory(argmem: readwrite) uwtable
define hidden noundef nonnull align 8 dereferenceable(40) ptr @_ZN23G1ConcurrentRefineStatsmIERKS_(ptr noundef nonnull returned align 8 dereferenceable(40) %0, ptr nocapture noundef nonnull readonly align 8 dereferenceable(40) %1) local_unnamed_addr #2 align 2 {
  %.sroa.01.0.copyload = load i64, ptr %0, align 8
  %.sroa.22.0..sroa_idx = getelementptr inbounds i8, ptr %0, i64 8
  %.sroa.22.0.copyload = load i64, ptr %.sroa.22.0..sroa_idx, align 8
  %.sroa.0.0.copyload = load i64, ptr %1, align 8
  %.sroa.2.0..sroa_idx = getelementptr inbounds i8, ptr %1, i64 8
  %.sroa.2.0.copyload = load i64, ptr %.sroa.2.0..sroa_idx, align 8
  %3 = icmp slt i64 %.sroa.01.0.copyload, %.sroa.0.0.copyload
  %4 = sub nsw i64 %.sroa.01.0.copyload, %.sroa.0.0.copyload
  %5 = sub nsw i64 %.sroa.22.0.copyload, %.sroa.2.0.copyload
  %.sroa.36.0.i = select i1 %3, i64 0, i64 %5
  %.sroa.05.0.i = select i1 %3, i64 0, i64 %4
  store i64 %.sroa.05.0.i, ptr %0, align 8
  store i64 %.sroa.36.0.i, ptr %.sroa.22.0..sroa_idx, align 8
  %6 = getelementptr inbounds i8, ptr %0, i64 16
  %7 = load i64, ptr %6, align 8
  %8 = getelementptr inbounds i8, ptr %1, i64 16
  %9 = load i64, ptr %8, align 8
  %10 = tail call noundef i64 @llvm.usub.sat.i64(i64 %7, i64 %9)
  store i64 %10, ptr %6, align 8
  %11 = getelementptr inbounds i8, ptr %0, i64 24
  %12 = load i64, ptr %11, align 8
  %13 = getelementptr inbounds i8, ptr %1, i64 24
  %14 = load i64, ptr %13, align 8
  %15 = tail call noundef i64 @llvm.usub.sat.i64(i64 %12, i64 %14)
  store i64 %15, ptr %11, align 8
  %16 = getelementptr inbounds i8, ptr %0, i64 32
  %17 = load i64, ptr %16, align 8
  %18 = getelementptr inbounds i8, ptr %1, i64 32
  %19 = load i64, ptr %18, align 8
  %20 = tail call noundef i64 @llvm.usub.sat.i64(i64 %17, i64 %19)
  store i64 %20, ptr %16, align 8
  ret ptr %0
}